; Function Attrs: nounwind uwtable
define dso_local noundef ptr @list_copy(ptr noundef readonly captures(address_is_null) %0) local_unnamed_addr #0 {
  %2 = icmp eq ptr %0, null
  br i1 %2, label %27, label %3

3:                                                ; preds = %1
  %4 = load i32, ptr %0, align 8
  %5 = getelementptr inbounds nuw i8, ptr %0, i64 4
  %6 = load i32, ptr %5, align 4
  %7 = add i32 %6, 3
  %8 = tail call i32 @llvm.smax.i32(i32 %7, i32 8)
  %9 = tail call range(i32 1, 32) i32 @llvm.ctpop.i32(i32 %8)
  %10 = icmp samesign ult i32 %9, 2
  %11 = tail call range(i32 0, 33) i32 @llvm.ctlz.i32(i32 %8, i1 true)
  %12 = xor i32 %11, 31
  %13 = shl nuw i32 2, %12
  %.0.i.i = select i1 %10, i32 %8, i32 %13
  %14 = add i32 %.0.i.i, -3
  %15 = zext nneg i32 %14 to i64
  %16 = shl nuw nsw i64 %15, 3
  %17 = add nuw nsw i64 %16, 24
  %18 = tail call ptr @palloc(i64 noundef %17) #9
  store i32 %4, ptr %18, align 8
  %19 = getelementptr inbounds nuw i8, ptr %18, i64 4
  store i32 %6, ptr %19, align 4
  %20 = getelementptr inbounds nuw i8, ptr %18, i64 8
  store i32 %14, ptr %20, align 8
  %21 = getelementptr inbounds nuw i8, ptr %18, i64 24
  %22 = getelementptr inbounds nuw i8, ptr %18, i64 16
  store ptr %21, ptr %22, align 8
  %23 = getelementptr inbounds nuw i8, ptr %0, i64 16
  %24 = load ptr, ptr %23, align 8
  %25 = sext i32 %6 to i64
  %26 = shl nsw i64 %25, 3
  tail call void @llvm.memcpy.p0.p0.i64(ptr nonnull align 8 %21, ptr align 8 %24, i64 %26, i1 false)
  br label %27

27:                                               ; preds = %1, %3
  %.0 = phi ptr [ %18, %3 ], [ null, %1 ]
  ret ptr %.0
}